; ModuleID = 'source-C-CXX/10/788.c'
source_filename = "source-C-CXX/10/788.c"
target datalayout = "e-m:e-p270:32:32-p271:32:32-p272:64:64-i64:64-f80:128-n8:16:32:64-S128"
target triple = "x86_64-pc-linux-gnu"

%struct._IO_FILE = type { i32, i8*, i8*, i8*, i8*, i8*, i8*, i8*, i8*, i8*, i8*, i8*, %struct._IO_marker*, %struct._IO_FILE*, i32, i32, i64, i16, i8, [1 x i8], i8*, i64, %struct._IO_codecvt*, %struct._IO_wide_data*, %struct._IO_FILE*, i8*, i64, i32, [20 x i8] }
%struct._IO_marker = type opaque
%struct._IO_codecvt = type opaque
%struct._IO_wide_data = type opaque

@.str = private unnamed_addr constant [9 x i8] c"%d %d %d\00", align 1
@.str.1 = private unnamed_addr constant [3 x i8] c"%d\00", align 1
@stdin = external local_unnamed_addr global %struct._IO_FILE*, align 8

; Function Attrs: nofree nounwind sspstrong uwtable
define dso_local i32 @main() local_unnamed_addr #0 {
  %1 = alloca i32, align 4
  %2 = alloca i32, align 4
  %3 = alloca i32, align 4
  %4 = alloca [13 x i32], align 16
  %5 = bitcast i32* %1 to i8*
  call void @llvm.lifetime.start.p0i8(i64 4, i8* nonnull %5) #4
  %6 = bitcast i32* %2 to i8*
  call void @llvm.lifetime.start.p0i8(i64 4, i8* nonnull %6) #4
  %7 = bitcast i32* %3 to i8*
  call void @llvm.lifetime.start.p0i8(i64 4, i8* nonnull %7) #4
  %8 = bitcast [13 x i32]* %4 to i8*
  call void @llvm.lifetime.start.p0i8(i64 52, i8* nonnull %8) #4
  %9 = call i32 (i8*, ...) @__isoc99_scanf(i8* getelementptr inbounds ([9 x i8], [9 x i8]* @.str, i64 0, i64 0), i32* nonnull %1, i32* nonnull %2, i32* nonnull %3)
  %10 = getelementptr inbounds [13 x i32], [13 x i32]* %4, i64 0, i64 3
  %11 = bitcast i32* %10 to <4 x i32>*
  store <4 x i32> <i32 31, i32 30, i32 31, i32 30>, <4 x i32>* %11, align 4, !tbaa !5
  %12 = getelementptr inbounds [13 x i32], [13 x i32]* %4, i64 0, i64 7
  %13 = bitcast i32* %12 to <4 x i32>*
  store <4 x i32> <i32 31, i32 31, i32 30, i32 31>, <4 x i32>* %13, align 4, !tbaa !5
  %14 = getelementptr inbounds [13 x i32], [13 x i32]* %4, i64 0, i64 11
  store i32 30, i32* %14, align 4, !tbaa !5
  %15 = getelementptr inbounds [13 x i32], [13 x i32]* %4, i64 0, i64 12
  store i32 31, i32* %15, align 16, !tbaa !5
  %16 = load i32, i32* %1, align 4, !tbaa !5
  %17 = srem i32 %16, 100
  %18 = icmp ne i32 %17, 0
  %19 = and i32 %16, 3
  %20 = icmp eq i32 %19, 0
  %21 = and i1 %18, %20
  %22 = srem i32 %16, 400
  %23 = icmp eq i32 %22, 0
  %24 = select i1 %21, i1 true, i1 %23
  %25 = select i1 %24, i32 29, i32 28
  %26 = getelementptr inbounds [13 x i32], [13 x i32]* %4, i64 0, i64 2
  store i32 %25, i32* %26, align 8
  %27 = load i32, i32* %3, align 4, !tbaa !5
  %28 = load i32, i32* %2, align 4, !tbaa !5
  %29 = icmp sgt i32 %28, 1
  br i1 %29, label %30, label %125

30:                                               ; preds = %0
  %31 = zext i32 %28 to i64
  %32 = add nsw i32 %27, 31
  %33 = icmp eq i32 %28, 2
  br i1 %33, label %125, label %34, !llvm.loop !9

34:                                               ; preds = %30
  %35 = add nsw i64 %31, -2
  %36 = icmp ult i64 %35, 8
  br i1 %36, label %122, label %37

37:                                               ; preds = %34
  %38 = and i64 %35, -8
  %39 = or i64 %38, 2
  %40 = insertelement <4 x i32> <i32 poison, i32 0, i32 0, i32 0>, i32 %32, i32 0
  %41 = add nsw i64 %38, -8
  %42 = lshr exact i64 %41, 3
  %43 = add nuw nsw i64 %42, 1
  %44 = and i64 %43, 3
  %45 = icmp ult i64 %41, 24
  br i1 %45, label %92, label %46

46:                                               ; preds = %37
  %47 = and i64 %43, 4611686018427387900
  br label %48

48:                                               ; preds = %48, %46
  %49 = phi i64 [ 0, %46 ], [ %89, %48 ]
  %50 = phi <4 x i32> [ %40, %46 ], [ %87, %48 ]
  %51 = phi <4 x i32> [ zeroinitializer, %46 ], [ %88, %48 ]
  %52 = phi i64 [ %47, %46 ], [ %90, %48 ]
  %53 = or i64 %49, 2
  %54 = getelementptr inbounds [13 x i32], [13 x i32]* %4, i64 0, i64 %53
  %55 = bitcast i32* %54 to <4 x i32>*
  %56 = load <4 x i32>, <4 x i32>* %55, align 8, !tbaa !5
  %57 = getelementptr inbounds i32, i32* %54, i64 4
  %58 = bitcast i32* %57 to <4 x i32>*
  %59 = load <4 x i32>, <4 x i32>* %58, align 8, !tbaa !5
  %60 = add <4 x i32> %56, %50
  %61 = add <4 x i32> %59, %51
  %62 = or i64 %49, 10
  %63 = getelementptr inbounds [13 x i32], [13 x i32]* %4, i64 0, i64 %62
  %64 = bitcast i32* %63 to <4 x i32>*
  %65 = load <4 x i32>, <4 x i32>* %64, align 8, !tbaa !5
  %66 = getelementptr inbounds i32, i32* %63, i64 4
  %67 = bitcast i32* %66 to <4 x i32>*
  %68 = load <4 x i32>, <4 x i32>* %67, align 8, !tbaa !5
  %69 = add <4 x i32> %65, %60
  %70 = add <4 x i32> %68, %61
  %71 = or i64 %49, 18
  %72 = getelementptr inbounds [13 x i32], [13 x i32]* %4, i64 0, i64 %71
  %73 = bitcast i32* %72 to <4 x i32>*
  %74 = load <4 x i32>, <4 x i32>* %73, align 8, !tbaa !5
  %75 = getelementptr inbounds i32, i32* %72, i64 4
  %76 = bitcast i32* %75 to <4 x i32>*
  %77 = load <4 x i32>, <4 x i32>* %76, align 8, !tbaa !5
  %78 = add <4 x i32> %74, %69
  %79 = add <4 x i32> %77, %70
  %80 = or i64 %49, 26
  %81 = getelementptr inbounds [13 x i32], [13 x i32]* %4, i64 0, i64 %80
  %82 = bitcast i32* %81 to <4 x i32>*
  %83 = load <4 x i32>, <4 x i32>* %82, align 8, !tbaa !5
  %84 = getelementptr inbounds i32, i32* %81, i64 4
  %85 = bitcast i32* %84 to <4 x i32>*
  %86 = load <4 x i32>, <4 x i32>* %85, align 8, !tbaa !5
  %87 = add <4 x i32> %83, %78
  %88 = add <4 x i32> %86, %79
  %89 = add nuw i64 %49, 32
  %90 = add i64 %52, -4
  %91 = icmp eq i64 %90, 0
  br i1 %91, label %92, label %48, !llvm.loop !11

92:                                               ; preds = %48, %37
  %93 = phi <4 x i32> [ undef, %37 ], [ %87, %48 ]
  %94 = phi <4 x i32> [ undef, %37 ], [ %88, %48 ]
  %95 = phi i64 [ 0, %37 ], [ %89, %48 ]
  %96 = phi <4 x i32> [ %40, %37 ], [ %87, %48 ]
  %97 = phi <4 x i32> [ zeroinitializer, %37 ], [ %88, %48 ]
  %98 = icmp eq i64 %44, 0
  br i1 %98, label %116, label %99

99:                                               ; preds = %92, %99
  %100 = phi i64 [ %113, %99 ], [ %95, %92 ]
  %101 = phi <4 x i32> [ %111, %99 ], [ %96, %92 ]
  %102 = phi <4 x i32> [ %112, %99 ], [ %97, %92 ]
  %103 = phi i64 [ %114, %99 ], [ %44, %92 ]
  %104 = or i64 %100, 2
  %105 = getelementptr inbounds [13 x i32], [13 x i32]* %4, i64 0, i64 %104
  %106 = bitcast i32* %105 to <4 x i32>*
  %107 = load <4 x i32>, <4 x i32>* %106, align 8, !tbaa !5
  %108 = getelementptr inbounds i32, i32* %105, i64 4
  %109 = bitcast i32* %108 to <4 x i32>*
  %110 = load <4 x i32>, <4 x i32>* %109, align 8, !tbaa !5
  %111 = add <4 x i32> %107, %101
  %112 = add <4 x i32> %110, %102
  %113 = add nuw i64 %100, 8
  %114 = add i64 %103, -1
  %115 = icmp eq i64 %114, 0
  br i1 %115, label %116, label %99, !llvm.loop !13

116:                                              ; preds = %99, %92
  %117 = phi <4 x i32> [ %93, %92 ], [ %111, %99 ]
  %118 = phi <4 x i32> [ %94, %92 ], [ %112, %99 ]
  %119 = add <4 x i32> %118, %117
  %120 = call i32 @llvm.vector.reduce.add.v4i32(<4 x i32> %119)
  %121 = icmp eq i64 %35, %38
  br i1 %121, label %125, label %122

122:                                              ; preds = %34, %116
  %123 = phi i64 [ 2, %34 ], [ %39, %116 ]
  %124 = phi i32 [ %32, %34 ], [ %120, %116 ]
  br label %132

125:                                              ; preds = %132, %30, %116, %0
  %126 = phi i32 [ %27, %0 ], [ %32, %30 ], [ %120, %116 ], [ %137, %132 ]
  %127 = call i32 (i8*, ...) @printf(i8* nonnull dereferenceable(1) getelementptr inbounds ([3 x i8], [3 x i8]* @.str.1, i64 0, i64 0), i32 %126)
  %128 = load %struct._IO_FILE*, %struct._IO_FILE** @stdin, align 8, !tbaa !15
  %129 = call i32 @getc(%struct._IO_FILE* %128) #4
  %130 = load %struct._IO_FILE*, %struct._IO_FILE** @stdin, align 8, !tbaa !15
  %131 = call i32 @getc(%struct._IO_FILE* %130) #4
  call void @llvm.lifetime.end.p0i8(i64 52, i8* nonnull %8) #4
  call void @llvm.lifetime.end.p0i8(i64 4, i8* nonnull %7) #4
  call void @llvm.lifetime.end.p0i8(i64 4, i8* nonnull %6) #4
  call void @llvm.lifetime.end.p0i8(i64 4, i8* nonnull %5) #4
  ret i32 0

132:                                              ; preds = %122, %132
  %133 = phi i64 [ %138, %132 ], [ %123, %122 ]
  %134 = phi i32 [ %137, %132 ], [ %124, %122 ]
  %135 = getelementptr inbounds [13 x i32], [13 x i32]* %4, i64 0, i64 %133
  %136 = load i32, i32* %135, align 4, !tbaa !5
  %137 = add nsw i32 %136, %134
  %138 = add nuw nsw i64 %133, 1
  %139 = icmp eq i64 %138, %31
  br i1 %139, label %125, label %132, !llvm.loop !17
}

; Function Attrs: argmemonly mustprogress nofree nosync nounwind willreturn
declare void @llvm.lifetime.start.p0i8(i64 immarg, i8* nocapture) #1

; Function Attrs: nofree nounwind
declare noundef i32 @__isoc99_scanf(i8* nocapture noundef readonly, ...) local_unnamed_addr #2

; Function Attrs: argmemonly mustprogress nofree nosync nounwind willreturn
declare void @llvm.lifetime.end.p0i8(i64 immarg, i8* nocapture) #1

; Function Attrs: nofree nounwind
declare noundef i32 @printf(i8* nocapture noundef readonly, ...) local_unnamed_addr #2

; Function Attrs: nofree nounwind
declare noundef i32 @getc(%struct._IO_FILE* nocapture noundef) local_unnamed_addr #2

; Function Attrs: nofree nosync nounwind readnone willreturn
declare i32 @llvm.vector.reduce.add.v4i32(<4 x i32>) #3


!llvm.module.flags = !{!0, !1, !2, !3}
!llvm.ident = !{!4}

!0 = !{i32 1, !"wchar_size", i32 4}
!1 = !{i32 7, !"PIC Level", i32 2}
!2 = !{i32 7, !"PIE Level", i32 2}
!3 = !{i32 7, !"uwtable", i32 1}
!4 = !{!"clang version 13.0.0"}
!5 = !{!6, !6, i64 0}
!6 = !{!"int", !7, i64 0}
!7 = !{!"omnipotent char", !8, i64 0}
!8 = !{!"Simple C/C++ TBAA"}
!9 = distinct !{!9, !10}
!10 = !{!"llvm.loop.mustprogress"}
!11 = distinct !{!11, !10, !12}
!12 = !{!"llvm.loop.isvectorized", i32 1}
!13 = distinct !{!13, !14}
!14 = !{!"llvm.loop.unroll.disable"}
!15 = !{!16, !16, i64 0}
!16 = !{!"any pointer", !7, i64 0}
!17 = distinct !{!17, !10, !18, !12}
!18 = !{!"llvm.loop.unroll.runtime.disable"}
